; Function Attrs: nounwind uwtable
define ptr @l_Array_mapMUnsafe_map___at_Lean_Elab_Term_expandFunBinders_loop___spec__4(ptr noundef %0, i64 noundef %1, i64 noundef %2, ptr noundef %3) local_unnamed_addr #1 {
  %.not42 = icmp ult i64 %2, %1
  br i1 %.not42, label %.lr.ph, label %._crit_edge

.lr.ph:                                           ; preds = %4, %49
  %.02144 = phi i64 [ %33, %49 ], [ %2, %4 ]
  %.02343 = phi ptr [ %.0.i.i31, %49 ], [ %3, %4 ]
  %5 = getelementptr inbounds nuw i8, ptr %.02343, i64 24
  %6 = getelementptr inbounds nuw [0 x ptr], ptr %5, i64 0, i64 %.02144
  %7 = load ptr, ptr %6, align 8, !tbaa !4
  %8 = ptrtoint ptr %7 to i64
  %9 = and i64 %8, 1
  %.not.i = icmp eq i64 %9, 0
  br i1 %.not.i, label %10, label %lean_array_uget.exit

10:                                               ; preds = %.lr.ph
  %.val.i.i = load i32, ptr %7, align 4, !tbaa !8
  %11 = icmp sgt i32 %.val.i.i, 0
  br i1 %11, label %12, label %14, !prof !11

12:                                               ; preds = %10
  %13 = add nuw i32 %.val.i.i, 1
  store i32 %13, ptr %7, align 4, !tbaa !8
  br label %lean_array_uget.exit

14:                                               ; preds = %10
  %.not.i.i = icmp eq i32 %.val.i.i, 0
  br i1 %.not.i.i, label %lean_array_uget.exit, label %15

15:                                               ; preds = %14
  tail call void @lean_inc_ref_cold(ptr noundef nonnull %7) #6
  br label %lean_array_uget.exit

lean_array_uget.exit:                             ; preds = %.lr.ph, %12, %14, %15
  %.val.i.i26 = load i32, ptr %.02343, align 4, !tbaa !8
  %16 = icmp eq i32 %.val.i.i26, 1
  br i1 %16, label %lean_ensure_exclusive_array.exit.i, label %17

17:                                               ; preds = %lean_array_uget.exit
  %18 = tail call ptr @lean_copy_expand_array(ptr noundef nonnull %.02343, i1 noundef zeroext false) #6
  br label %lean_ensure_exclusive_array.exit.i

lean_ensure_exclusive_array.exit.i:               ; preds = %17, %lean_array_uget.exit
  %.0.i.i = phi ptr [ %18, %17 ], [ %.02343, %lean_array_uget.exit ]
  %19 = getelementptr inbounds nuw i8, ptr %.0.i.i, i64 24
  %20 = getelementptr inbounds nuw ptr, ptr %19, i64 %.02144
  %21 = load ptr, ptr %20, align 8, !tbaa !4
  %22 = ptrtoint ptr %21 to i64
  %23 = and i64 %22, 1
  %.not.i27 = icmp eq i64 %23, 0
  br i1 %.not.i27, label %24, label %lean_array_uset.exit

24:                                               ; preds = %lean_ensure_exclusive_array.exit.i
  %25 = load i32, ptr %21, align 4, !tbaa !8
  %26 = icmp sgt i32 %25, 1
  br i1 %26, label %27, label %29, !prof !11

27:                                               ; preds = %24
  %28 = add nsw i32 %25, -1
  store i32 %28, ptr %21, align 4, !tbaa !8
  br label %lean_array_uset.exit

29:                                               ; preds = %24
  %.not.i.i28 = icmp eq i32 %25, 0
  br i1 %.not.i.i28, label %lean_array_uset.exit, label %30

30:                                               ; preds = %29
  tail call void @lean_dec_ref_cold(ptr noundef nonnull %21) #6
  br label %lean_array_uset.exit

lean_array_uset.exit:                             ; preds = %lean_ensure_exclusive_array.exit.i, %27, %29, %30
  store ptr inttoptr (i64 1 to ptr), ptr %20, align 8, !tbaa !4
  %31 = tail call ptr @l_Lean_mkHole(ptr noundef %0, i8 noundef zeroext 0) #6
  %32 = tail call ptr @l_Lean_Elab_Term_mkExplicitBinder(ptr noundef %7, ptr noundef %31) #6
  %33 = add nuw i64 %.02144, 1
  %.val.i.i29 = load i32, ptr %.0.i.i, align 4, !tbaa !8
  %34 = icmp eq i32 %.val.i.i29, 1
  br i1 %34, label %lean_ensure_exclusive_array.exit.i30, label %35

35:                                               ; preds = %lean_array_uset.exit
  %36 = tail call ptr @lean_copy_expand_array(ptr noundef nonnull %.0.i.i, i1 noundef zeroext false) #6
  br label %lean_ensure_exclusive_array.exit.i30

lean_ensure_exclusive_array.exit.i30:             ; preds = %35, %lean_array_uset.exit
  %.0.i.i31 = phi ptr [ %36, %35 ], [ %.0.i.i, %lean_array_uset.exit ]
  %37 = getelementptr inbounds nuw i8, ptr %.0.i.i31, i64 24
  %38 = getelementptr inbounds nuw ptr, ptr %37, i64 %.02144
  %39 = load ptr, ptr %38, align 8, !tbaa !4
  %40 = ptrtoint ptr %39 to i64
  %41 = and i64 %40, 1
  %.not.i32 = icmp eq i64 %41, 0
  br i1 %.not.i32, label %42, label %49

42:                                               ; preds = %lean_ensure_exclusive_array.exit.i30
  %43 = load i32, ptr %39, align 4, !tbaa !8
  %44 = icmp sgt i32 %43, 1
  br i1 %44, label %45, label %47, !prof !11

45:                                               ; preds = %42
  %46 = add nsw i32 %43, -1
  store i32 %46, ptr %39, align 4, !tbaa !8
  br label %49

47:                                               ; preds = %42
  %.not.i.i33 = icmp eq i32 %43, 0
  br i1 %.not.i.i33, label %49, label %48

48:                                               ; preds = %47
  tail call void @lean_dec_ref_cold(ptr noundef nonnull %39) #6
  br label %49

49:                                               ; preds = %48, %47, %45, %lean_ensure_exclusive_array.exit.i30
  store ptr %32, ptr %38, align 8, !tbaa !4
  %exitcond.not = icmp eq i64 %33, %1
  br i1 %exitcond.not, label %._crit_edge, label %.lr.ph

._crit_edge:                                      ; preds = %49, %4
  %.023.lcssa = phi ptr [ %3, %4 ], [ %.0.i.i31, %49 ]
  ret ptr %.023.lcssa
}